target datalayout = "e-m:e-p270:32:32-p271:32:32-p272:64:64-i64:64-i128:128-f80:128-n8:16:32:64-S128"
target triple = "x86_64-pc-linux-gnu"

%class.GrowableArray = type { %class.GrowableArrayWithAllocator, %class.GrowableArrayMetadata }
%class.GrowableArrayWithAllocator = type { %class.GrowableArrayView }
%class.GrowableArrayView = type { %class.GrowableArrayBase, ptr }
%class.GrowableArrayBase = type { i32, i32 }
%class.GrowableArrayMetadata = type { i64 }
%class.ResourceMark = type { %class.ResourceMarkImpl }
%class.ResourceMarkImpl = type { ptr, %"class.ResourceArea::SavedState" }
%"class.ResourceArea::SavedState" = type { ptr, ptr, ptr, i64 }
%class.ThreadShadow = type <{ ptr, ptr, ptr, i32, [4 x i8] }>
%class.klassItable = type <{ ptr, i32, i32, i32, [4 x i8] }>
%class.Thread = type { %class.ThreadShadow.base, i64, [43 x i64], ptr, ptr, i32, ptr, i64, i64, %class.ThreadLocalAllocBuffer, i64, %class.ThreadHeapSampler, %class.ThreadStatisticalInfo, %class.JfrThreadLocal, ptr, ptr, ptr, ptr, ptr, ptr, i64, i32, i32, ptr, i32, i32, i32, i32, i8, ptr }
%class.ThreadShadow.base = type <{ ptr, ptr, ptr, i32 }>
%class.ThreadLocalAllocBuffer = type <{ ptr, ptr, ptr, ptr, ptr, i64, i64, i64, i64, i32, i32, i32, i32, i64, %class.AdaptiveWeightedAverage, [4 x i8] }>
%class.AdaptiveWeightedAverage = type { float, i32, i32, i8, float }
%class.ThreadHeapSampler = type { i64 }
%class.ThreadStatisticalInfo = type { i64, i64 }
%class.JfrThreadLocal = type <{ ptr, ptr, ptr, ptr, ptr, ptr, ptr, ptr, ptr, ptr, %class.RefCountHandle, i64, i64, i64, i64, i64, i64, i64, i64, i64, i64, i64, i32, i32, i32, i16, i8, i8, i8, i8, i8, [5 x i8] }>
%class.RefCountHandle = type { ptr }
%class.Arena = type { i8, i8, i64, ptr, ptr, ptr, ptr }
%class.Chunk = type { ptr, i64 }

; Function Attrs: mustprogress nounwind uwtable
define linkonce_odr hidden noundef ptr @_ZNK5Chunk4nextEv(ptr noundef nonnull align 8 dereferenceable(16) %0) #1 comdat align 2 {
  %2 = alloca ptr, align 8
  store ptr %0, ptr %2, align 8
  %3 = load ptr, ptr %2, align 8
  %4 = getelementptr inbounds %class.Chunk, ptr %3, i32 0, i32 0
  %5 = load ptr, ptr %4, align 8
  ret ptr %5
}

; Function Attrs: mustprogress nounwind uwtable
define linkonce_odr hidden noundef i64 @_ZNK5Arena13size_in_bytesEv(ptr noundef nonnull align 8 dereferenceable(48) %0) #1 comdat align 2 {
  %2 = alloca ptr, align 8
  store ptr %0, ptr %2, align 8
  %3 = load ptr, ptr %2, align 8
  %4 = getelementptr inbounds %class.Arena, ptr %3, i32 0, i32 2
  %5 = load i64, ptr %4, align 8
  ret i64 %5
}

; Function Attrs: mustprogress nounwind uwtable
define linkonce_odr hidden void @_ZN12ResourceArea11rollback_toERKNS_10SavedStateE(ptr noundef nonnull align 8 dereferenceable(48) %0, ptr noundef nonnull align 8 dereferenceable(32) %1) #1 comdat align 2 {
  %3 = alloca ptr, align 8
  %4 = alloca ptr, align 8
  %5 = alloca ptr, align 8
  store ptr %0, ptr %3, align 8
  store ptr %1, ptr %4, align 8
  %6 = load ptr, ptr %3, align 8
  %7 = load ptr, ptr %4, align 8
  %8 = getelementptr inbounds %"class.ResourceArea::SavedState", ptr %7, i32 0, i32 0
  %9 = load ptr, ptr %8, align 8
  %10 = call noundef ptr @_ZNK5Chunk4nextEv(ptr noundef nonnull align 8 dereferenceable(16) %9)
  %11 = icmp ne ptr %10, null
  br i1 %11, label %12, label %19

12:                                               ; preds = %2
  %13 = load ptr, ptr %4, align 8
  %14 = getelementptr inbounds %"class.ResourceArea::SavedState", ptr %13, i32 0, i32 3
  %15 = load i64, ptr %14, align 8
  call void @_ZN5Arena17set_size_in_bytesEm(ptr noundef nonnull align 8 dereferenceable(48) %6, i64 noundef %15)
  %16 = load ptr, ptr %4, align 8
  %17 = getelementptr inbounds %"class.ResourceArea::SavedState", ptr %16, i32 0, i32 0
  %18 = load ptr, ptr %17, align 8
  call void @_ZN5Chunk9next_chopEPS_(ptr noundef %18)
  br label %20

19:                                               ; preds = %2
  br label %20

20:                                               ; preds = %19, %12
  %21 = getelementptr inbounds %class.Arena, ptr %6, i32 0, i32 5
  %22 = load ptr, ptr %21, align 8
  %23 = load ptr, ptr %4, align 8
  %24 = getelementptr inbounds %"class.ResourceArea::SavedState", ptr %23, i32 0, i32 1
  %25 = load ptr, ptr %24, align 8
  %26 = icmp ne ptr %22, %25
  br i1 %26, label %27, label %42

27:                                               ; preds = %20
  %28 = getelementptr inbounds %class.Arena, ptr %6, i32 0, i32 5
  %29 = load ptr, ptr %28, align 8
  store ptr %29, ptr %5, align 8
  %30 = load ptr, ptr %4, align 8
  %31 = getelementptr inbounds %"class.ResourceArea::SavedState", ptr %30, i32 0, i32 0
  %32 = load ptr, ptr %31, align 8
  %33 = getelementptr inbounds %class.Arena, ptr %6, i32 0, i32 4
  store ptr %32, ptr %33, align 8
  %34 = load ptr, ptr %4, align 8
  %35 = getelementptr inbounds %"class.ResourceArea::SavedState", ptr %34, i32 0, i32 1
  %36 = load ptr, ptr %35, align 8
  %37 = getelementptr inbounds %class.Arena, ptr %6, i32 0, i32 5
  store ptr %36, ptr %37, align 8
  %38 = load ptr, ptr %4, align 8
  %39 = getelementptr inbounds %"class.ResourceArea::SavedState", ptr %38, i32 0, i32 2
  %40 = load ptr, ptr %39, align 8
  %41 = getelementptr inbounds %class.Arena, ptr %6, i32 0, i32 6
  store ptr %40, ptr %41, align 8
  br label %43

42:                                               ; preds = %20
  br label %43

43:                                               ; preds = %42, %27
  ret void
}

; Function Attrs: mustprogress nounwind uwtable
define linkonce_odr hidden void @_ZN17GrowableArrayBaseC2Eii(ptr noundef nonnull align 4 dereferenceable(8) %0, i32 noundef %1, i32 noundef %2) unnamed_addr #1 comdat align 2 {
  %4 = alloca ptr, align 8
  %5 = alloca i32, align 4
  %6 = alloca i32, align 4
  store ptr %0, ptr %4, align 8
  store i32 %1, ptr %5, align 4
  store i32 %2, ptr %6, align 4
  %7 = load ptr, ptr %4, align 8
  %8 = getelementptr inbounds %class.GrowableArrayBase, ptr %7, i32 0, i32 0
  %9 = load i32, ptr %6, align 4
  store i32 %9, ptr %8, align 4
  %10 = getelementptr inbounds %class.GrowableArrayBase, ptr %7, i32 0, i32 1
  %11 = load i32, ptr %5, align 4
  store i32 %11, ptr %10, align 4
  ret void
}

; Function Attrs: mustprogress nounwind uwtable
define linkonce_odr hidden void @_ZN12ResourceArea14activate_stateERKNS_10SavedStateE(ptr noundef nonnull align 8 dereferenceable(48) %0, ptr noundef nonnull align 8 dereferenceable(32) %1) #1 comdat align 2 {
  %3 = alloca ptr, align 8
  %4 = alloca ptr, align 8
  store ptr %0, ptr %3, align 8
  store ptr %1, ptr %4, align 8
  ret void
}

; Function Attrs: mustprogress nounwind uwtable
define linkonce_odr hidden void @_ZN12ResourceArea10SavedStateC2EPS_(ptr noundef nonnull align 8 dereferenceable(32) %0, ptr noundef %1) unnamed_addr #1 comdat align 2 {
  %3 = alloca ptr, align 8
  %4 = alloca ptr, align 8
  store ptr %0, ptr %3, align 8
  store ptr %1, ptr %4, align 8
  %5 = load ptr, ptr %3, align 8
  %6 = getelementptr inbounds %"class.ResourceArea::SavedState", ptr %5, i32 0, i32 0
  %7 = load ptr, ptr %4, align 8
  %8 = getelementptr inbounds %class.Arena, ptr %7, i32 0, i32 4
  %9 = load ptr, ptr %8, align 8
  store ptr %9, ptr %6, align 8
  %10 = getelementptr inbounds %"class.ResourceArea::SavedState", ptr %5, i32 0, i32 1
  %11 = load ptr, ptr %4, align 8
  %12 = getelementptr inbounds %class.Arena, ptr %11, i32 0, i32 5
  %13 = load ptr, ptr %12, align 8
  store ptr %13, ptr %10, align 8
  %14 = getelementptr inbounds %"class.ResourceArea::SavedState", ptr %5, i32 0, i32 2
  %15 = load ptr, ptr %4, align 8
  %16 = getelementptr inbounds %class.Arena, ptr %15, i32 0, i32 6
  %17 = load ptr, ptr %16, align 8
  store ptr %17, ptr %14, align 8
  %18 = getelementptr inbounds %"class.ResourceArea::SavedState", ptr %5, i32 0, i32 3
  %19 = load ptr, ptr %4, align 8
  %20 = call noundef i64 @_ZNK5Arena13size_in_bytesEv(ptr noundef nonnull align 8 dereferenceable(48) %19)
  store i64 %20, ptr %18, align 8
  ret void
}

; Function Attrs: mustprogress nounwind uwtable
define linkonce_odr hidden void @_ZN12ResourceArea16deactivate_stateERKNS_10SavedStateE(ptr noundef nonnull align 8 dereferenceable(48) %0, ptr noundef nonnull align 8 dereferenceable(32) %1) #1 comdat align 2 {
  %3 = alloca ptr, align 8
  %4 = alloca ptr, align 8
  store ptr %0, ptr %3, align 8
  store ptr %1, ptr %4, align 8
  ret void
}

; Function Attrs: mustprogress nounwind uwtable
define linkonce_odr hidden void @_ZNK16ResourceMarkImpl13reset_to_markEv(ptr noundef nonnull align 8 dereferenceable(40) %0) #1 comdat align 2 {
  %2 = alloca ptr, align 8
  store ptr %0, ptr %2, align 8
  %3 = load ptr, ptr %2, align 8
  %4 = getelementptr inbounds %class.ResourceMarkImpl, ptr %3, i32 0, i32 0
  %5 = load ptr, ptr %4, align 8
  %6 = getelementptr inbounds %class.ResourceMarkImpl, ptr %3, i32 0, i32 1
  call void @_ZN12ResourceArea11rollback_toERKNS_10SavedStateE(ptr noundef nonnull align 8 dereferenceable(48) %5, ptr noundef nonnull align 8 dereferenceable(32) %6)
  ret void
}

; Function Attrs: mustprogress nounwind uwtable
define linkonce_odr hidden noundef i64 @_ZN21GrowableArrayMetadata4bitsEv() #1 comdat align 2 {
  ret i64 0
}

; Function Attrs: mustprogress nounwind uwtable
define linkonce_odr hidden void @_ZN17GrowableArrayViewIP6MethodEC2EPS1_ii(ptr noundef nonnull align 8 dereferenceable(16) %0, ptr noundef %1, i32 noundef %2, i32 noundef %3) unnamed_addr #1 comdat align 2 {
  %5 = alloca ptr, align 8
  %6 = alloca ptr, align 8
  %7 = alloca i32, align 4
  %8 = alloca i32, align 4
  store ptr %0, ptr %5, align 8
  store ptr %1, ptr %6, align 8
  store i32 %2, ptr %7, align 4
  store i32 %3, ptr %8, align 4
  %9 = load ptr, ptr %5, align 8
  %10 = load i32, ptr %7, align 4
  %11 = load i32, ptr %8, align 4
  call void @_ZN17GrowableArrayBaseC2Eii(ptr noundef nonnull align 4 dereferenceable(8) %9, i32 noundef %10, i32 noundef %11)
  %12 = getelementptr inbounds %class.GrowableArrayView, ptr %9, i32 0, i32 1
  %13 = load ptr, ptr %6, align 8
  store ptr %13, ptr %12, align 8
  ret void
}

; Function Attrs: mustprogress nounwind uwtable
define linkonce_odr hidden void @_ZN16ResourceMarkImplC2EP12ResourceArea(ptr noundef nonnull align 8 dereferenceable(40) %0, ptr noundef %1) unnamed_addr #1 comdat align 2 {
  %3 = alloca ptr, align 8
  %4 = alloca ptr, align 8
  store ptr %0, ptr %3, align 8
  store ptr %1, ptr %4, align 8
  %5 = load ptr, ptr %3, align 8
  %6 = getelementptr inbounds %class.ResourceMarkImpl, ptr %5, i32 0, i32 0
  %7 = load ptr, ptr %4, align 8
  store ptr %7, ptr %6, align 8
  %8 = getelementptr inbounds %class.ResourceMarkImpl, ptr %5, i32 0, i32 1
  %9 = load ptr, ptr %4, align 8
  call void @_ZN12ResourceArea10SavedStateC2EPS_(ptr noundef nonnull align 8 dereferenceable(32) %8, ptr noundef %9)
  %10 = getelementptr inbounds %class.ResourceMarkImpl, ptr %5, i32 0, i32 0
  %11 = load ptr, ptr %10, align 8
  %12 = getelementptr inbounds %class.ResourceMarkImpl, ptr %5, i32 0, i32 1
  call void @_ZN12ResourceArea14activate_stateERKNS_10SavedStateE(ptr noundef nonnull align 8 dereferenceable(48) %11, ptr noundef nonnull align 8 dereferenceable(32) %12)
  ret void
}

; Function Attrs: mustprogress nounwind uwtable
define linkonce_odr hidden void @_ZN16ResourceMarkImplD2Ev(ptr noundef nonnull align 8 dereferenceable(40) %0) unnamed_addr #1 comdat align 2 {
  %2 = alloca ptr, align 8
  store ptr %0, ptr %2, align 8
  %3 = load ptr, ptr %2, align 8
  call void @_ZNK16ResourceMarkImpl13reset_to_markEv(ptr noundef nonnull align 8 dereferenceable(40) %3)
  %4 = getelementptr inbounds %class.ResourceMarkImpl, ptr %3, i32 0, i32 0
  %5 = load ptr, ptr %4, align 8
  %6 = getelementptr inbounds %class.ResourceMarkImpl, ptr %3, i32 0, i32 1
  call void @_ZN12ResourceArea16deactivate_stateERKNS_10SavedStateE(ptr noundef nonnull align 8 dereferenceable(48) %5, ptr noundef nonnull align 8 dereferenceable(32) %6)
  ret void
}

; Function Attrs: mustprogress nounwind uwtable
define linkonce_odr hidden void @_ZNK13GrowableArrayIP6MethodE11init_checksEv(ptr noundef nonnull align 8 dereferenceable(24) %0) #1 comdat align 2 {
  %2 = alloca ptr, align 8
  store ptr %0, ptr %2, align 8
  ret void
}

; Function Attrs: mustprogress nounwind uwtable
define linkonce_odr hidden void @_ZN21GrowableArrayMetadataC2Ev(ptr noundef nonnull align 8 dereferenceable(8) %0) unnamed_addr #1 comdat align 2 {
  %2 = alloca ptr, align 8
  store ptr %0, ptr %2, align 8
  %3 = load ptr, ptr %2, align 8
  %4 = getelementptr inbounds %class.GrowableArrayMetadata, ptr %3, i32 0, i32 0
  %5 = call noundef i64 @_ZN21GrowableArrayMetadata4bitsEv()
  store i64 %5, ptr %4, align 8
  ret void
}

; Function Attrs: mustprogress nounwind uwtable
define linkonce_odr hidden void @_ZN26GrowableArrayWithAllocatorIP6Method13GrowableArrayIS1_EEC2EPS1_iiRKS1_(ptr noundef nonnull align 8 dereferenceable(16) %0, ptr noundef %1, i32 noundef %2, i32 noundef %3, ptr noundef nonnull align 8 dereferenceable(8) %4) unnamed_addr #1 comdat align 2 {
  %6 = alloca ptr, align 8
  %7 = alloca ptr, align 8
  %8 = alloca i32, align 4
  %9 = alloca i32, align 4
  %10 = alloca ptr, align 8
  %11 = alloca i32, align 4
  store ptr %0, ptr %6, align 8
  store ptr %1, ptr %7, align 8
  store i32 %2, ptr %8, align 4
  store i32 %3, ptr %9, align 4
  store ptr %4, ptr %10, align 8
  %12 = load ptr, ptr %6, align 8
  %13 = load ptr, ptr %7, align 8
  %14 = load i32, ptr %8, align 4
  %15 = load i32, ptr %9, align 4
  call void @_ZN17GrowableArrayViewIP6MethodEC2EPS1_ii(ptr noundef nonnull align 8 dereferenceable(16) %12, ptr noundef %13, i32 noundef %14, i32 noundef %15)
  store i32 0, ptr %11, align 4
  br label %16

16:                                               ; preds = %27, %5
  %17 = load i32, ptr %11, align 4
  %18 = load i32, ptr %9, align 4
  %19 = icmp slt i32 %17, %18
  br i1 %19, label %20, label %30

20:                                               ; preds = %16
  %21 = load ptr, ptr %7, align 8
  %22 = load i32, ptr %11, align 4
  %23 = sext i32 %22 to i64
  %24 = getelementptr inbounds ptr, ptr %21, i64 %23
  %25 = load ptr, ptr %10, align 8
  %26 = load ptr, ptr %25, align 8
  store ptr %26, ptr %24, align 8
  br label %27

27:                                               ; preds = %20
  %28 = load i32, ptr %11, align 4
  %29 = add nsw i32 %28, 1
  store i32 %29, ptr %11, align 4
  br label %16, !llvm.loop !54

30:                                               ; preds = %16
  br label %31

31:                                               ; preds = %40, %30
  %32 = load i32, ptr %11, align 4
  %33 = load i32, ptr %8, align 4
  %34 = icmp slt i32 %32, %33
  br i1 %34, label %35, label %43

35:                                               ; preds = %31
  %36 = load ptr, ptr %7, align 8
  %37 = load i32, ptr %11, align 4
  %38 = sext i32 %37 to i64
  %39 = getelementptr inbounds ptr, ptr %36, i64 %38
  store ptr null, ptr %39, align 8
  br label %40

40:                                               ; preds = %35
  %41 = load i32, ptr %11, align 4
  %42 = add nsw i32 %41, 1
  store i32 %42, ptr %11, align 4
  br label %31, !llvm.loop !55

43:                                               ; preds = %31
  ret void
}

; Function Attrs: mustprogress nounwind uwtable
define linkonce_odr hidden noundef ptr @_ZN13GrowableArrayIP6MethodE8allocateEi(i32 noundef %0) #1 comdat align 2 {
  %2 = alloca i32, align 4
  store i32 %0, ptr %2, align 4
  %3 = load i32, ptr %2, align 4
  %4 = call noundef ptr @_ZN30GrowableArrayResourceAllocator8allocateEii(i32 noundef %3, i32 noundef 8)
  ret ptr %4
}

; Function Attrs: mustprogress nounwind uwtable
define linkonce_odr hidden void @_ZN12ResourceMarkC2EP12ResourceAreaP6Thread(ptr noundef nonnull align 8 dereferenceable(40) %0, ptr noundef %1, ptr noundef %2) unnamed_addr #1 comdat align 2 {
  %4 = alloca ptr, align 8
  %5 = alloca ptr, align 8
  %6 = alloca ptr, align 8
  store ptr %0, ptr %4, align 8
  store ptr %1, ptr %5, align 8
  store ptr %2, ptr %6, align 8
  %7 = load ptr, ptr %4, align 8
  %8 = getelementptr inbounds %class.ResourceMark, ptr %7, i32 0, i32 0
  %9 = load ptr, ptr %5, align 8
  call void @_ZN16ResourceMarkImplC2EP12ResourceArea(ptr noundef nonnull align 8 dereferenceable(40) %8, ptr noundef %9)
  ret void
}

; Function Attrs: mustprogress nounwind uwtable
define linkonce_odr hidden noundef ptr @_ZNK6Thread13resource_areaEv(ptr noundef nonnull align 8 dereferenceable(888) %0) #1 comdat align 2 {
  %2 = alloca ptr, align 8
  store ptr %0, ptr %2, align 8
  %3 = load ptr, ptr %2, align 8
  %4 = getelementptr inbounds %class.Thread, ptr %3, i32 0, i32 16
  %5 = load ptr, ptr %4, align 8
  ret ptr %5
}

; Function Attrs: mustprogress nounwind uwtable
define linkonce_odr hidden void @_ZN12ResourceMarkD2Ev(ptr noundef nonnull align 8 dereferenceable(40) %0) unnamed_addr #1 comdat align 2 {
  %2 = alloca ptr, align 8
  store ptr %0, ptr %2, align 8
  %3 = load ptr, ptr %2, align 8
  %4 = getelementptr inbounds %class.ResourceMark, ptr %3, i32 0, i32 0
  call void @_ZN16ResourceMarkImplD2Ev(ptr noundef nonnull align 8 dereferenceable(40) %4) #8
  ret void
}

; Function Attrs: mustprogress nounwind uwtable
define linkonce_odr hidden noundef zeroext i1 @_ZNK12ThreadShadow21has_pending_exceptionEv(ptr noundef nonnull align 8 dereferenceable(28) %0) #1 comdat align 2 {
  %2 = alloca ptr, align 8
  store ptr %0, ptr %2, align 8
  %3 = load ptr, ptr %2, align 8
  %4 = getelementptr inbounds %class.ThreadShadow, ptr %3, i32 0, i32 1
  %5 = load ptr, ptr %4, align 8
  %6 = icmp ne ptr %5, null
  ret i1 %6
}

; Function Attrs: mustprogress nounwind uwtable
define linkonce_odr hidden void @_ZN13GrowableArrayIP6MethodEC2EiiRKS1_(ptr noundef nonnull align 8 dereferenceable(24) %0, i32 noundef %1, i32 noundef %2, ptr noundef nonnull align 8 dereferenceable(8) %3) unnamed_addr #1 comdat align 2 {
  %5 = alloca ptr, align 8
  %6 = alloca i32, align 4
  %7 = alloca i32, align 4
  %8 = alloca ptr, align 8
  store ptr %0, ptr %5, align 8
  store i32 %1, ptr %6, align 4
  store i32 %2, ptr %7, align 4
  store ptr %3, ptr %8, align 8
  %9 = load ptr, ptr %5, align 8
  %10 = load i32, ptr %6, align 4
  %11 = call noundef ptr @_ZN13GrowableArrayIP6MethodE8allocateEi(i32 noundef %10)
  %12 = load i32, ptr %6, align 4
  %13 = load i32, ptr %7, align 4
  %14 = load ptr, ptr %8, align 8
  call void @_ZN26GrowableArrayWithAllocatorIP6Method13GrowableArrayIS1_EEC2EPS1_iiRKS1_(ptr noundef nonnull align 8 dereferenceable(16) %9, ptr noundef %11, i32 noundef %12, i32 noundef %13, ptr noundef nonnull align 8 dereferenceable(8) %14)
  %15 = getelementptr inbounds %class.GrowableArray, ptr %9, i32 0, i32 1
  call void @_ZN21GrowableArrayMetadataC2Ev(ptr noundef nonnull align 8 dereferenceable(8) %15)
  call void @_ZNK13GrowableArrayIP6MethodE11init_checksEv(ptr noundef nonnull align 8 dereferenceable(24) %9)
  ret void
}

; Function Attrs: mustprogress nounwind uwtable
define linkonce_odr hidden noundef ptr @_ZN6AnyObjnwEm(i64 noundef %0) #1 comdat align 2 {
  %2 = alloca i64, align 8
  %3 = alloca ptr, align 8
  store i64 %0, ptr %2, align 8
  %4 = load i64, ptr %2, align 8
  %5 = call noundef ptr @_Z23resource_allocate_bytesmN17AllocFailStrategy13AllocFailEnumE(i64 noundef %4, i32 noundef 0)
  store ptr %5, ptr %3, align 8
  %6 = load ptr, ptr %3, align 8
  ret ptr %6
}

; Function Attrs: mustprogress nounwind uwtable
define linkonce_odr hidden void @_ZN12ResourceMarkC2EP6Thread(ptr noundef nonnull align 8 dereferenceable(40) %0, ptr noundef %1) unnamed_addr #1 comdat align 2 {
  %3 = alloca ptr, align 8
  %4 = alloca ptr, align 8
  store ptr %0, ptr %3, align 8
  store ptr %1, ptr %4, align 8
  %5 = load ptr, ptr %3, align 8
  %6 = load ptr, ptr %4, align 8
  %7 = call noundef ptr @_ZNK6Thread13resource_areaEv(ptr noundef nonnull align 8 dereferenceable(888) %6)
  %8 = load ptr, ptr %4, align 8
  call void @_ZN12ResourceMarkC2EP12ResourceAreaP6Thread(ptr noundef nonnull align 8 dereferenceable(40) %5, ptr noundef %7, ptr noundef %8)
  ret void
}

; Function Attrs: mustprogress nounwind uwtable
define hidden void @_ZN11klassItable39initialize_itable_and_check_constraintsEP10JavaThread(ptr noundef nonnull align 8 dereferenceable(20) %0, ptr noundef %1) #1 align 2 {
  %3 = alloca ptr, align 8
  %4 = alloca ptr, align 8
  %5 = alloca %class.ResourceMark, align 8
  %6 = alloca ptr, align 8
  %7 = alloca ptr, align 8
  %8 = alloca i32, align 4
  store ptr %0, ptr %3, align 8
  store ptr %1, ptr %4, align 8
  %9 = load ptr, ptr %3, align 8
  %10 = load ptr, ptr %4, align 8
  call void @_ZN12ResourceMarkC2EP6Thread(ptr noundef nonnull align 8 dereferenceable(40) %5, ptr noundef %10)
  %11 = call noundef ptr @_ZN6AnyObjnwEm(i64 noundef 24)
  %12 = getelementptr inbounds %class.klassItable, ptr %9, i32 0, i32 3
  %13 = load i32, ptr %12, align 8
  %14 = getelementptr inbounds %class.klassItable, ptr %9, i32 0, i32 3
  %15 = load i32, ptr %14, align 8
  store ptr null, ptr %7, align 8
  call void @_ZN13GrowableArrayIP6MethodEC2EiiRKS1_(ptr noundef nonnull align 8 dereferenceable(24) %11, i32 noundef %13, i32 noundef %15, ptr noundef nonnull align 8 dereferenceable(8) %7)
  store ptr %11, ptr %6, align 8
  %16 = load ptr, ptr %6, align 8
  call void @_ZN11klassItable17initialize_itableEP13GrowableArrayIP6MethodE(ptr noundef nonnull align 8 dereferenceable(20) %9, ptr noundef %16)
  %17 = load ptr, ptr %6, align 8
  %18 = load ptr, ptr %4, align 8
  call void @_ZN11klassItable17check_constraintsEP13GrowableArrayIP6MethodEP10JavaThread(ptr noundef nonnull align 8 dereferenceable(20) %9, ptr noundef %17, ptr noundef %18)
  %19 = load ptr, ptr %4, align 8
  %20 = call noundef zeroext i1 @_ZNK12ThreadShadow21has_pending_exceptionEv(ptr noundef nonnull align 8 dereferenceable(28) %19)
  br i1 %20, label %21, label %22

21:                                               ; preds = %2
  store i32 1, ptr %8, align 4
  br label %23

22:                                               ; preds = %2
  store i32 0, ptr %8, align 4
  br label %23

23:                                               ; preds = %22, %21
  call void @_ZN12ResourceMarkD2Ev(ptr noundef nonnull align 8 dereferenceable(40) %5) #8
  %24 = load i32, ptr %8, align 4
  switch i32 %24, label %26 [
    i32 0, label %25
    i32 1, label %25
  ]

25:                                               ; preds = %23, %23
  ret void

26:                                               ; preds = %23
  unreachable
}